target datalayout = "e-m:e-p270:32:32-p271:32:32-p272:64:64-i64:64-i128:128-f80:128-n8:16:32:64-S128"
target triple = "x86_64-pc-linux-gnu"

%struct.RelFileLocator = type { i32, i32, i32 }

; Function Attrs: nounwind uwtable
define dso_local void @DropRelationFiles(ptr noundef %0, i32 noundef %1, i1 noundef zeroext %2) #0 {
  %4 = alloca ptr, align 8
  %5 = alloca i32, align 4
  %6 = alloca i8, align 1
  %7 = alloca ptr, align 8
  %8 = alloca i32, align 4
  %9 = alloca ptr, align 8
  %10 = alloca { i64, i32 }, align 4
  %11 = alloca i32, align 4
  %12 = alloca { i64, i32 }, align 4
  store ptr %0, ptr %4, align 8
  store i32 %1, ptr %5, align 4
  %13 = zext i1 %2 to i8
  store i8 %13, ptr %6, align 1
  call void @llvm.lifetime.start.p0(i64 8, ptr %7) #10
  call void @llvm.lifetime.start.p0(i64 4, ptr %8) #10
  %14 = load i32, ptr %5, align 4
  %15 = sext i32 %14 to i64
  %16 = mul i64 8, %15
  %17 = call ptr @palloc(i64 noundef %16)
  store ptr %17, ptr %7, align 8
  store i32 0, ptr %8, align 4
  br label %18

18:                                               ; preds = %58, %3
  %19 = load i32, ptr %8, align 4
  %20 = load i32, ptr %5, align 4
  %21 = icmp slt i32 %19, %20
  br i1 %21, label %22, label %61

22:                                               ; preds = %18
  call void @llvm.lifetime.start.p0(i64 8, ptr %9) #10
  %23 = load ptr, ptr %4, align 8
  %24 = load i32, ptr %8, align 4
  %25 = sext i32 %24 to i64
  %26 = getelementptr inbounds %struct.RelFileLocator, ptr %23, i64 %25
  call void @llvm.memcpy.p0.p0.i64(ptr align 4 %10, ptr align 4 %26, i64 12, i1 false)
  %27 = getelementptr inbounds nuw { i64, i32 }, ptr %10, i32 0, i32 0
  %28 = load i64, ptr %27, align 4
  %29 = getelementptr inbounds nuw { i64, i32 }, ptr %10, i32 0, i32 1
  %30 = load i32, ptr %29, align 4
  %31 = call ptr @smgropen(i64 %28, i32 %30, i32 noundef -1)
  store ptr %31, ptr %9, align 8
  %32 = load i8, ptr %6, align 1, !range !4, !noundef !5
  %33 = trunc i8 %32 to i1
  br i1 %33, label %34, label %52

34:                                               ; preds = %22
  call void @llvm.lifetime.start.p0(i64 4, ptr %11) #10
  store i32 0, ptr %11, align 4
  br label %35

35:                                               ; preds = %48, %34
  %36 = load i32, ptr %11, align 4
  %37 = icmp sle i32 %36, 3
  br i1 %37, label %38, label %51

38:                                               ; preds = %35
  %39 = load ptr, ptr %4, align 8
  %40 = load i32, ptr %8, align 4
  %41 = sext i32 %40 to i64
  %42 = getelementptr inbounds %struct.RelFileLocator, ptr %39, i64 %41
  %43 = load i32, ptr %11, align 4
  call void @llvm.memcpy.p0.p0.i64(ptr align 4 %12, ptr align 4 %42, i64 12, i1 false)
  %44 = getelementptr inbounds nuw { i64, i32 }, ptr %12, i32 0, i32 0
  %45 = load i64, ptr %44, align 4
  %46 = getelementptr inbounds nuw { i64, i32 }, ptr %12, i32 0, i32 1
  %47 = load i32, ptr %46, align 4
  call void @XLogDropRelation(i64 %45, i32 %47, i32 noundef %43)
  br label %48

48:                                               ; preds = %38
  %49 = load i32, ptr %11, align 4
  %50 = add i32 %49, 1
  store i32 %50, ptr %11, align 4
  br label %35, !llvm.loop !24

51:                                               ; preds = %35
  call void @llvm.lifetime.end.p0(i64 4, ptr %11) #10
  br label %52

52:                                               ; preds = %51, %22
  %53 = load ptr, ptr %9, align 8
  %54 = load ptr, ptr %7, align 8
  %55 = load i32, ptr %8, align 4
  %56 = sext i32 %55 to i64
  %57 = getelementptr inbounds ptr, ptr %54, i64 %56
  store ptr %53, ptr %57, align 8
  call void @llvm.lifetime.end.p0(i64 8, ptr %9) #10
  br label %58

58:                                               ; preds = %52
  %59 = load i32, ptr %8, align 4
  %60 = add i32 %59, 1
  store i32 %60, ptr %8, align 4
  br label %18, !llvm.loop !25

61:                                               ; preds = %18
  %62 = load ptr, ptr %7, align 8
  %63 = load i32, ptr %5, align 4
  %64 = load i8, ptr %6, align 1, !range !4, !noundef !5
  %65 = trunc i8 %64 to i1
  call void @smgrdounlinkall(ptr noundef %62, i32 noundef %63, i1 noundef zeroext %65)
  store i32 0, ptr %8, align 4
  br label %66

66:                                               ; preds = %76, %61
  %67 = load i32, ptr %8, align 4
  %68 = load i32, ptr %5, align 4
  %69 = icmp slt i32 %67, %68
  br i1 %69, label %70, label %79

70:                                               ; preds = %66
  %71 = load ptr, ptr %7, align 8
  %72 = load i32, ptr %8, align 4
  %73 = sext i32 %72 to i64
  %74 = getelementptr inbounds ptr, ptr %71, i64 %73
  %75 = load ptr, ptr %74, align 8
  call void @smgrclose(ptr noundef %75)
  br label %76

76:                                               ; preds = %70
  %77 = load i32, ptr %8, align 4
  %78 = add i32 %77, 1
  store i32 %78, ptr %8, align 4
  br label %66, !llvm.loop !26

79:                                               ; preds = %66
  %80 = load ptr, ptr %7, align 8
  call void @pfree(ptr noundef %80)
  call void @llvm.lifetime.end.p0(i64 4, ptr %8) #10
  call void @llvm.lifetime.end.p0(i64 8, ptr %7) #10
  ret void
}