; Function Attrs: nounwind uwtable
define dso_local void @DropRelationFiles(ptr noundef readonly captures(none) %0, i32 noundef %1, i1 noundef zeroext %2) local_unnamed_addr #0 {
  %4 = sext i32 %1 to i64
  %5 = shl nsw i64 %4, 3
  %6 = tail call ptr @palloc(i64 noundef %5) #15
  %7 = icmp sgt i32 %1, 0
  br i1 %7, label %.lr.ph, label %._crit_edge.thread

._crit_edge.thread:                               ; preds = %3
  tail call void @smgrdounlinkall(ptr noundef %6, i32 noundef %1, i1 noundef zeroext %2) #15
  br label %._crit_edge32

.lr.ph:                                           ; preds = %3
  %wide.trip.count39 = zext nneg i32 %1 to i64
  br i1 %2, label %.preheader.us, label %.lr.ph.split

.preheader.us:                                    ; preds = %.lr.ph, %.loopexit.us
  %indvars.iv36 = phi i64 [ %indvars.iv.next37, %.loopexit.us ], [ 0, %.lr.ph ]
  %8 = getelementptr inbounds nuw %struct.RelFileLocator, ptr %0, i64 %indvars.iv36
  %.sroa.03.0.copyload.us = load i64, ptr %8, align 4
  %.sroa.24.0..sroa_idx.us = getelementptr inbounds nuw i8, ptr %8, i64 8
  %.sroa.24.0.copyload.us = load i32, ptr %.sroa.24.0..sroa_idx.us, align 4
  %9 = tail call ptr @smgropen(i64 %.sroa.03.0.copyload.us, i32 %.sroa.24.0.copyload.us, i32 noundef -1) #15
  br label %10

10:                                               ; preds = %.preheader.us, %10
  %.02527.us = phi i32 [ 0, %.preheader.us ], [ %11, %10 ]
  %.sroa.0.0.copyload.us = load i64, ptr %8, align 4
  %.sroa.2.0.copyload.us = load i32, ptr %.sroa.24.0..sroa_idx.us, align 4
  tail call void @XLogDropRelation(i64 %.sroa.0.0.copyload.us, i32 %.sroa.2.0.copyload.us, i32 noundef %.02527.us) #15
  %11 = add nuw nsw i32 %.02527.us, 1
  %exitcond35.not = icmp eq i32 %11, 4
  br i1 %exitcond35.not, label %.loopexit.us, label %10, !llvm.loop !17

.loopexit.us:                                     ; preds = %10
  %12 = getelementptr inbounds nuw ptr, ptr %6, i64 %indvars.iv36
  store ptr %9, ptr %12, align 8
  %indvars.iv.next37 = add nuw nsw i64 %indvars.iv36, 1
  %exitcond40.not = icmp eq i64 %indvars.iv.next37, %wide.trip.count39
  br i1 %exitcond40.not, label %._crit_edge, label %.preheader.us, !llvm.loop !18

.lr.ph.split:                                     ; preds = %.lr.ph, %.lr.ph.split
  %indvars.iv = phi i64 [ %indvars.iv.next, %.lr.ph.split ], [ 0, %.lr.ph ]
  %13 = getelementptr inbounds nuw %struct.RelFileLocator, ptr %0, i64 %indvars.iv
  %.sroa.03.0.copyload = load i64, ptr %13, align 4
  %.sroa.24.0..sroa_idx = getelementptr inbounds nuw i8, ptr %13, i64 8
  %.sroa.24.0.copyload = load i32, ptr %.sroa.24.0..sroa_idx, align 4
  %14 = tail call ptr @smgropen(i64 %.sroa.03.0.copyload, i32 %.sroa.24.0.copyload, i32 noundef -1) #15
  %15 = getelementptr inbounds nuw ptr, ptr %6, i64 %indvars.iv
  store ptr %14, ptr %15, align 8
  %indvars.iv.next = add nuw nsw i64 %indvars.iv, 1
  %exitcond.not = icmp eq i64 %indvars.iv.next, %wide.trip.count39
  br i1 %exitcond.not, label %._crit_edge, label %.lr.ph.split, !llvm.loop !18

._crit_edge:                                      ; preds = %.lr.ph.split, %.loopexit.us
  tail call void @smgrdounlinkall(ptr noundef nonnull %6, i32 noundef %1, i1 noundef zeroext %2) #15
  %wide.trip.count44 = zext nneg i32 %1 to i64
  br label %.lr.ph31

.lr.ph31:                                         ; preds = %._crit_edge, %.lr.ph31
  %indvars.iv41 = phi i64 [ 0, %._crit_edge ], [ %indvars.iv.next42, %.lr.ph31 ]
  %16 = getelementptr inbounds nuw ptr, ptr %6, i64 %indvars.iv41
  %17 = load ptr, ptr %16, align 8
  tail call void @smgrclose(ptr noundef %17) #15
  %indvars.iv.next42 = add nuw nsw i64 %indvars.iv41, 1
  %exitcond45.not = icmp eq i64 %indvars.iv.next42, %wide.trip.count44
  br i1 %exitcond45.not, label %._crit_edge32, label %.lr.ph31, !llvm.loop !19

._crit_edge32:                                    ; preds = %.lr.ph31, %._crit_edge.thread
  tail call void @pfree(ptr noundef %6) #15
  ret void
}